; ModuleID = 'source-C-CXX/24/919.cpp'
source_filename = "source-C-CXX/24/919.cpp"
target datalayout = "e-m:e-p270:32:32-p271:32:32-p272:64:64-i64:64-f80:128-n8:16:32:64-S128"
target triple = "x86_64-pc-linux-gnu"

%"class.std::ios_base::Init" = type { i8 }
%"class.std::basic_istream" = type { i32 (...)**, i64, %"class.std::basic_ios" }
%"class.std::basic_ios" = type { %"class.std::ios_base", %"class.std::basic_ostream"*, i8, i8, %"class.std::basic_streambuf"*, %"class.std::ctype"*, %"class.std::num_put"*, %"class.std::num_get"* }
%"class.std::ios_base" = type { i32 (...)**, i64, i64, i32, i32, i32, %"struct.std::ios_base::_Callback_list"*, %"struct.std::ios_base::_Words", [8 x %"struct.std::ios_base::_Words"], i32, %"struct.std::ios_base::_Words"*, %"class.std::locale" }
%"struct.std::ios_base::_Callback_list" = type { %"struct.std::ios_base::_Callback_list"*, void (i32, %"class.std::ios_base"*, i32)*, i32, i32 }
%"struct.std::ios_base::_Words" = type { i8*, i64 }
%"class.std::locale" = type { %"class.std::locale::_Impl"* }
%"class.std::locale::_Impl" = type { i32, %"class.std::locale::facet"**, i64, %"class.std::locale::facet"**, i8** }
%"class.std::locale::facet" = type <{ i32 (...)**, i32, [4 x i8] }>
%"class.std::basic_ostream" = type { i32 (...)**, %"class.std::basic_ios" }
%"class.std::basic_streambuf" = type { i32 (...)**, i8*, i8*, i8*, i8*, i8*, i8*, %"class.std::locale" }
%"class.std::ctype" = type <{ %"class.std::locale::facet.base", [4 x i8], %struct.__locale_struct*, i8, [7 x i8], i32*, i32*, i16*, i8, [256 x i8], [256 x i8], i8, [6 x i8] }>
%"class.std::locale::facet.base" = type <{ i32 (...)**, i32 }>
%struct.__locale_struct = type { [13 x %struct.__locale_data*], i16*, i32*, i32*, [13 x i8*] }
%struct.__locale_data = type opaque
%"class.std::num_put" = type { %"class.std::locale::facet.base", [4 x i8] }
%"class.std::num_get" = type { %"class.std::locale::facet.base", [4 x i8] }

@_ZStL8__ioinit = internal global %"class.std::ios_base::Init" zeroinitializer, align 1
@__dso_handle = external hidden global i8
@_ZSt3cin = external global %"class.std::basic_istream", align 8
@_ZSt4cout = external global %"class.std::basic_ostream", align 8
@llvm.global_ctors = appending global [1 x { i32, void ()*, i8* }] [{ i32, void ()*, i8* } { i32 65535, void ()* @_GLOBAL__sub_I_919.cpp, i8* null }]

declare void @_ZNSt8ios_base4InitC1Ev(%"class.std::ios_base::Init"* nonnull align 1 dereferenceable(1)) unnamed_addr #0

; Function Attrs: nounwind
declare void @_ZNSt8ios_base4InitD1Ev(%"class.std::ios_base::Init"* nonnull align 1 dereferenceable(1)) unnamed_addr #1

; Function Attrs: nofree nounwind
declare i32 @__cxa_atexit(void (i8*)*, i8*, i8*) local_unnamed_addr #2

; Function Attrs: mustprogress norecurse sspstrong uwtable
define dso_local i32 @main() local_unnamed_addr #3 {
  %1 = alloca [10000 x i32], align 16
  %2 = alloca [10000 x i32], align 16
  %3 = alloca i32, align 4
  %4 = bitcast [10000 x i32]* %1 to i8*
  call void @llvm.lifetime.start.p0i8(i64 40000, i8* nonnull %4) #8
  call void @llvm.memset.p0i8.i64(i8* noundef nonnull align 16 dereferenceable(40000) %4, i8 0, i64 40000, i1 false)
  %5 = bitcast [10000 x i32]* %2 to i8*
  call void @llvm.lifetime.start.p0i8(i64 40000, i8* nonnull %5) #8
  call void @llvm.memset.p0i8.i64(i8* noundef nonnull align 16 dereferenceable(40000) %5, i8 0, i64 40000, i1 false)
  %6 = bitcast i32* %3 to i8*
  call void @llvm.lifetime.start.p0i8(i64 4, i8* nonnull %6) #8
  %7 = call nonnull align 8 dereferenceable(16) %"class.std::basic_istream"* @_ZNSirsERi(%"class.std::basic_istream"* nonnull align 8 dereferenceable(16) @_ZSt3cin, i32* nonnull align 4 dereferenceable(4) %3)
  %8 = getelementptr inbounds [10000 x i32], [10000 x i32]* %2, i64 0, i64 1
  store i32 1, i32* %8, align 4, !tbaa !5
  %9 = load i32, i32* %3, align 4, !tbaa !5
  %10 = icmp eq i32 %9, 0
  br i1 %10, label %11, label %14

11:                                               ; preds = %0
  %12 = getelementptr inbounds [10000 x i32], [10000 x i32]* %1, i64 0, i64 1
  store i32 1, i32* %12, align 4, !tbaa !5
  %13 = getelementptr inbounds [10000 x i32], [10000 x i32]* %1, i64 0, i64 0
  store i32 1, i32* %13, align 16, !tbaa !5
  br label %63

14:                                               ; preds = %0
  %15 = icmp sgt i32 %9, 0
  br i1 %15, label %16, label %73

16:                                               ; preds = %14
  %17 = getelementptr inbounds [10000 x i32], [10000 x i32]* %1, i64 0, i64 0
  %18 = getelementptr inbounds [10000 x i32], [10000 x i32]* %1, i64 0, i64 1
  %19 = bitcast i32* %18 to i8*
  %20 = bitcast i32* %8 to i8*
  br label %21

21:                                               ; preds = %16, %58
  %22 = phi i32 [ %53, %58 ], [ 0, %16 ]
  %23 = phi i32 [ %59, %58 ], [ 1, %16 ]
  %24 = phi i32 [ %53, %58 ], [ 1, %16 ]
  %25 = icmp slt i32 %22, 1
  br i1 %25, label %29, label %26

26:                                               ; preds = %21
  %27 = zext i32 %22 to i64
  %28 = shl nuw nsw i64 %27, 2
  call void @llvm.memset.p0i8.i64(i8* nonnull align 4 %19, i8 0, i64 %28, i1 false)
  br label %29

29:                                               ; preds = %26, %21
  %30 = icmp slt i32 %24, 1
  %31 = add i32 %24, 1
  br i1 %30, label %48, label %32

32:                                               ; preds = %29
  %33 = zext i32 %31 to i64
  %34 = load i32, i32* %18, align 4, !tbaa !5
  br label %35

35:                                               ; preds = %32, %35
  %36 = phi i32 [ %34, %32 ], [ %44, %35 ]
  %37 = phi i64 [ 1, %32 ], [ %45, %35 ]
  %38 = getelementptr inbounds [10000 x i32], [10000 x i32]* %2, i64 0, i64 %37
  %39 = load i32, i32* %38, align 4, !tbaa !5
  %40 = shl nsw i32 %39, 1
  %41 = getelementptr inbounds [10000 x i32], [10000 x i32]* %1, i64 0, i64 %37
  %42 = srem i32 %40, 10
  %43 = add nsw i32 %42, %36
  store i32 %43, i32* %41, align 4, !tbaa !5
  %44 = sdiv i32 %39, 5
  %45 = add nuw nsw i64 %37, 1
  %46 = getelementptr inbounds [10000 x i32], [10000 x i32]* %1, i64 0, i64 %45
  store i32 %44, i32* %46, align 4, !tbaa !5
  %47 = icmp eq i64 %45, %33
  br i1 %47, label %48, label %35, !llvm.loop !9

48:                                               ; preds = %35, %29
  store i32 %24, i32* %17, align 16, !tbaa !5
  %49 = sext i32 %31 to i64
  %50 = getelementptr inbounds [10000 x i32], [10000 x i32]* %1, i64 0, i64 %49
  %51 = load i32, i32* %50, align 4, !tbaa !5
  %52 = icmp sgt i32 %51, 0
  %53 = select i1 %52, i32 %31, i32 %24
  store i32 %53, i32* %17, align 16
  %54 = icmp slt i32 %53, 1
  br i1 %54, label %58, label %55

55:                                               ; preds = %48
  %56 = zext i32 %53 to i64
  %57 = shl nuw nsw i64 %56, 2
  call void @llvm.memcpy.p0i8.p0i8.i64(i8* nonnull align 4 %20, i8* nonnull align 4 %19, i64 %57, i1 false)
  br label %58

58:                                               ; preds = %55, %48
  %59 = add nuw i32 %23, 1
  %60 = icmp eq i32 %23, %9
  br i1 %60, label %61, label %21, !llvm.loop !11

61:                                               ; preds = %58
  %62 = icmp sgt i32 %53, 0
  br i1 %62, label %63, label %73

63:                                               ; preds = %11, %61
  %64 = phi i32 [ 1, %11 ], [ %53, %61 ]
  %65 = zext i32 %64 to i64
  br label %66

66:                                               ; preds = %63, %66
  %67 = phi i64 [ %65, %63 ], [ %72, %66 ]
  %68 = getelementptr inbounds [10000 x i32], [10000 x i32]* %1, i64 0, i64 %67
  %69 = load i32, i32* %68, align 4, !tbaa !5
  %70 = call nonnull align 8 dereferenceable(8) %"class.std::basic_ostream"* @_ZNSolsEi(%"class.std::basic_ostream"* nonnull align 8 dereferenceable(8) @_ZSt4cout, i32 %69)
  %71 = icmp sgt i64 %67, 1
  %72 = add nsw i64 %67, -1
  br i1 %71, label %66, label %73, !llvm.loop !12

73:                                               ; preds = %66, %14, %61
  call void @llvm.lifetime.end.p0i8(i64 4, i8* nonnull %6) #8
  call void @llvm.lifetime.end.p0i8(i64 40000, i8* nonnull %5) #8
  call void @llvm.lifetime.end.p0i8(i64 40000, i8* nonnull %4) #8
  ret i32 0
}

; Function Attrs: argmemonly mustprogress nofree nosync nounwind willreturn
declare void @llvm.lifetime.start.p0i8(i64 immarg, i8* nocapture) #4

; Function Attrs: argmemonly mustprogress nofree nounwind willreturn writeonly
declare void @llvm.memset.p0i8.i64(i8* nocapture writeonly, i8, i64, i1 immarg) #5

declare nonnull align 8 dereferenceable(16) %"class.std::basic_istream"* @_ZNSirsERi(%"class.std::basic_istream"* nonnull align 8 dereferenceable(16), i32* nonnull align 4 dereferenceable(4)) local_unnamed_addr #0

declare nonnull align 8 dereferenceable(8) %"class.std::basic_ostream"* @_ZNSolsEi(%"class.std::basic_ostream"* nonnull align 8 dereferenceable(8), i32) local_unnamed_addr #0

; Function Attrs: argmemonly mustprogress nofree nosync nounwind willreturn
declare void @llvm.lifetime.end.p0i8(i64 immarg, i8* nocapture) #4

; Function Attrs: sspstrong uwtable
define internal void @_GLOBAL__sub_I_919.cpp() #6 section ".text.startup" {
  tail call void @_ZNSt8ios_base4InitC1Ev(%"class.std::ios_base::Init"* nonnull align 1 dereferenceable(1) @_ZStL8__ioinit)
  %1 = tail call i32 @__cxa_atexit(void (i8*)* bitcast (void (%"class.std::ios_base::Init"*)* @_ZNSt8ios_base4InitD1Ev to void (i8*)*), i8* getelementptr inbounds (%"class.std::ios_base::Init", %"class.std::ios_base::Init"* @_ZStL8__ioinit, i64 0, i32 0), i8* nonnull @__dso_handle) #8
  ret void
}

; Function Attrs: argmemonly nofree nounwind willreturn
declare void @llvm.memcpy.p0i8.p0i8.i64(i8* noalias nocapture writeonly, i8* noalias nocapture readonly, i64, i1 immarg) #7


!llvm.module.flags = !{!0, !1, !2, !3}
!llvm.ident = !{!4}

!0 = !{i32 1, !"wchar_size", i32 4}
!1 = !{i32 7, !"PIC Level", i32 2}
!2 = !{i32 7, !"PIE Level", i32 2}
!3 = !{i32 7, !"uwtable", i32 1}
!4 = !{!"clang version 13.0.0"}
!5 = !{!6, !6, i64 0}
!6 = !{!"int", !7, i64 0}
!7 = !{!"omnipotent char", !8, i64 0}
!8 = !{!"Simple C++ TBAA"}
!9 = distinct !{!9, !10}
!10 = !{!"llvm.loop.mustprogress"}
!11 = distinct !{!11, !10}
!12 = distinct !{!12, !10}
